; Function Attrs: mustprogress uwtable
define noundef nonnull ptr @_ZN8nanobind6detail13nb_inst_allocEP11_typeobject(ptr noundef %0) local_unnamed_addr #0 {
  %2 = tail call noundef ptr @_ZN8nanobind6detail12inst_new_intEP11_typeobjectP7_objectS4_(ptr noundef %0, ptr poison, ptr poison)
  %.not = icmp eq ptr %2, null
  br i1 %.not, label %3, label %4

3:                                                ; preds = %1
  tail call void @_ZN8nanobind6detail18raise_python_errorEv() #33
  unreachable

4:                                                ; preds = %1
  ret ptr %2
}